; Function Attrs: mustprogress uwtable
define hidden void @_ZN2cv8tracking4impl15TrackerCSRTImpl14setInitialMaskERKNS_11_InputArrayE(ptr noundef nonnull align 8 dereferenceable(1544) %0, ptr noundef nonnull align 8 dereferenceable(24) %1) unnamed_addr #3 align 2 personality ptr @__gxx_personality_v0 {
  %3 = alloca %"class.cv::Mat", align 8
  call void @llvm.lifetime.start.p0(i64 96, ptr nonnull %3) #27
  %4 = tail call noundef i32 @_ZNK2cv11_InputArray4kindEv(ptr noundef nonnull align 8 dereferenceable(24) %1), !noalias !46
  %5 = icmp eq i32 %4, 65536
  br i1 %5, label %6, label %9

6:                                                ; preds = %2
  %7 = getelementptr inbounds nuw i8, ptr %1, i64 8
  %8 = load ptr, ptr %7, align 8, !tbaa !49, !noalias !46
  call void @_ZN2cv3MatC1ERKS0_(ptr noundef nonnull align 8 dereferenceable(96) %3, ptr noundef nonnull align 8 dereferenceable(96) %8)
  br label %_ZNK2cv11_InputArray6getMatEi.exit

9:                                                ; preds = %2
  call void @_ZNK2cv11_InputArray7getMat_Ei(ptr dead_on_unwind nonnull writable sret(%"class.cv::Mat") align 8 %3, ptr noundef nonnull align 8 dereferenceable(24) %1, i32 noundef -1)
  br label %_ZNK2cv11_InputArray6getMatEi.exit

_ZNK2cv11_InputArray6getMatEi.exit:               ; preds = %6, %9
  %10 = getelementptr inbounds nuw i8, ptr %0, i64 1344
  %11 = invoke noundef nonnull align 8 dereferenceable(96) ptr @_ZN2cv3MataSEOS0_(ptr noundef nonnull align 8 dereferenceable(96) %10, ptr noundef nonnull align 8 dereferenceable(96) %3)
          to label %12 unwind label %13

12:                                               ; preds = %_ZNK2cv11_InputArray6getMatEi.exit
  call void @_ZN2cv3MatD1Ev(ptr noundef nonnull align 8 dereferenceable(96) %3) #27
  call void @llvm.lifetime.end.p0(i64 96, ptr nonnull %3) #27
  ret void

13:                                               ; preds = %_ZNK2cv11_InputArray6getMatEi.exit
  %14 = landingpad { ptr, i32 }
          cleanup
  call void @_ZN2cv3MatD1Ev(ptr noundef nonnull align 8 dereferenceable(96) %3) #27
  call void @llvm.lifetime.end.p0(i64 96, ptr nonnull %3) #27
  resume { ptr, i32 } %14
}